target datalayout = "e-m:e-p270:32:32-p271:32:32-p272:64:64-i64:64-i128:128-f80:128-n8:16:32:64-S128"
target triple = "x86_64-pc-linux-gnu"

%struct.Curl_cfilter = type { ptr, ptr, ptr, ptr, i32, i8 }
%struct.Curl_cftype = type { ptr, i32, i32, ptr, ptr, ptr, ptr, ptr, ptr, ptr, ptr, ptr, ptr, ptr, ptr, ptr }
%struct.connectdata = type { %struct.Curl_llist_node, ptr, ptr, i64, ptr, i64, ptr, ptr, %struct.hostname, ptr, ptr, %struct.hostname, %struct.proxy_info, %struct.proxy_info, %struct.ip_quadruple, %struct.ip_quadruple, ptr, ptr, ptr, ptr, ptr, %struct.curltime, %struct.curltime, %struct.curltime, [2 x i32], [2 x ptr], [2 x ptr], [2 x ptr], %struct.anon, %struct.easy_pollset, %struct.ssl_primary_config, %struct.ssl_primary_config, %struct.ConnectBits, ptr, ptr, %struct.curltime, i32, i32, %struct.Curl_llist, i32, i32, %struct.ntlmdata, %struct.ntlmdata, %union.anon, ptr, i16, i32, i32, i32, i32, i16, i16, i8, i8, i8, i8, i8, i8, i8 }
%struct.Curl_llist_node = type { ptr, ptr, ptr, ptr }
%struct.hostname = type { ptr, ptr, ptr, ptr }
%struct.proxy_info = type { %struct.hostname, i32, i8, ptr, ptr }
%struct.ip_quadruple = type { [46 x i8], [46 x i8], i32, i32 }
%struct.anon = type { [2 x %struct.curltime], i32 }
%struct.easy_pollset = type { [5 x i32], i32, [5 x i8] }
%struct.ssl_primary_config = type { ptr, ptr, ptr, ptr, ptr, ptr, ptr, ptr, ptr, ptr, ptr, ptr, i8, i32, i8, i8 }
%struct.ConnectBits = type { i64 }
%struct.curltime = type { i64, i32 }
%struct.Curl_llist = type { ptr, ptr, ptr, i64 }
%struct.ntlmdata = type { i32, [8 x i8], i32, ptr }
%union.anon = type { %struct.ftp_conn }
%struct.ftp_conn = type { %struct.pingpong, ptr, ptr, ptr, ptr, ptr, ptr, ptr, i8, i64, ptr, i64, i32, i32, i32, i32, i32, i16, i8, i8, i8, i8, i8 }
%struct.pingpong = type { i64, i8, ptr, i64, i64, %struct.curltime, i64, %struct.dynbuf, %struct.dynbuf, i64, i64, ptr, ptr }
%struct.dynbuf = type { ptr, i64, i64, i64 }
%struct.Curl_easy = type { i32, i64, i64, ptr, %struct.Curl_llist_node, %struct.Curl_llist_node, i32, i32, %struct.Curl_message, %struct.easy_pollset, %struct.Names, ptr, ptr, ptr, %struct.SingleRequest, %struct.UserDefined, ptr, ptr, %struct.Progress, %struct.UrlState, ptr, %struct.PureInfo, %struct.curl_tlssessioninfo }
%struct.Curl_message = type { %struct.Curl_llist_node, %struct.CURLMsg }
%struct.CURLMsg = type { i32, ptr, %union.anon.0 }
%union.anon.0 = type { ptr }
%struct.Names = type { ptr, i32 }
%struct.SingleRequest = type <{ i64, i64, i64, i64, %struct.curltime, i32, i32, i32, i32, i64, i32, i32, i32, i32, ptr, ptr, %struct.bufq, i64, i64, ptr, ptr, %union.anon.1, ptr, i8, i32, [3 x i8] }>
%struct.bufq = type { ptr, ptr, ptr, ptr, i64, i64, i64, i32 }
%union.anon.1 = type { ptr }
%struct.UserDefined = type <{ ptr, ptr, ptr, ptr, ptr, ptr, i16, [6 x i8], i64, i64, i64, ptr, ptr, i64, i16, i16, [4 x i8], ptr, ptr, ptr, ptr, ptr, ptr, ptr, ptr, ptr, ptr, ptr, ptr, ptr, ptr, ptr, ptr, ptr, ptr, ptr, ptr, ptr, ptr, ptr, i32, i32, i32, i32, i32, [4 x i8], i64, i64, i64, i64, i64, i64, i64, i64, ptr, ptr, %struct.curl_mimepart, ptr, ptr, i64, i8, i8, i8, [5 x i8], %struct.ssl_config_data, %struct.ssl_config_data, ptr, i16, i8, i8, [4 x i8], %struct.ssl_general_config, i32, i32, i32, [4 x i8], ptr, ptr, i8, [7 x i8], i64, i8, i8, i8, i8, i32, ptr, ptr, ptr, i8, i8, [2 x i8], i32, [63 x ptr], [8 x ptr], i32, i32, i32, [4 x i8], ptr, ptr, ptr, ptr, ptr, i8, [3 x i8], i32, i32, i32, i64, %struct.Curl_data_priority, ptr, ptr, i64, ptr, i64, ptr, ptr, ptr, i8, [3 x i8], i32, i8, i8, i64, [6 x i8] }>
%struct.curl_mimepart = type { ptr, ptr, i32, i32, ptr, ptr, ptr, ptr, ptr, ptr, ptr, ptr, ptr, ptr, ptr, i64, %struct.mime_state, ptr, %struct.mime_encoder_state, i64 }
%struct.mime_state = type { i32, ptr, i64 }
%struct.mime_encoder_state = type { i64, i64, i64, [256 x i8] }
%struct.ssl_config_data = type { %struct.ssl_primary_config, i64, ptr, ptr, ptr, ptr, ptr, ptr, ptr, i16 }
%struct.ssl_general_config = type { i64, i32 }
%struct.Curl_data_priority = type { ptr, ptr, i32, i8 }
%struct.Progress = type { i64, %struct.pgrs_dir, %struct.pgrs_dir, i64, i64, i32, i32, i64, i64, i64, i64, i64, i64, i64, i64, i64, %struct.curltime, %struct.curltime, %struct.curltime, %struct.curltime, [6 x i64], [6 x %struct.curltime], i32, i8 }
%struct.pgrs_dir = type { i64, i64, i64, %struct.pgrs_measure }
%struct.pgrs_measure = type { %struct.curltime, i64 }
%struct.UrlState = type { %struct.curltime, i64, i64, %struct.dynbuf, ptr, i64, ptr, i32, i32, i32, ptr, i64, i32, i64, i32, ptr, %struct.digestdata, %struct.digestdata, %struct.auth, %struct.auth, %struct.Curl_async, ptr, %struct.curltime, %struct.Curl_tree, %struct.Curl_llist, [15 x %struct.time_node], ptr, ptr, i64, i64, %struct.Curl_data_priority, ptr, ptr, ptr, %struct.urlpieces, ptr, ptr, ptr, ptr, ptr, i64, %struct.dynbuf, %struct.Curl_llist, [2 x %struct.curl_header], ptr, i32, ptr, ptr, %struct.store_netrc, %struct.dynamically_allocated_data, i8, i8, i8, i8, i32 }
%struct.digestdata = type { ptr, ptr, ptr, ptr, ptr, ptr, i32, i8, i8 }
%struct.auth = type { i64, i64, i64, i8 }
%struct.Curl_async = type { ptr, ptr, ptr, ptr, i32, i32, i8 }
%struct.Curl_tree = type { ptr, ptr, ptr, ptr, %struct.curltime, ptr }
%struct.time_node = type { %struct.Curl_llist_node, %struct.curltime, i32 }
%struct.urlpieces = type { ptr, ptr, ptr, ptr, ptr, ptr, ptr, ptr }
%struct.curl_header = type { ptr, ptr, i64, i64, i32, ptr }
%struct.store_netrc = type { %struct.dynbuf, ptr, i8 }
%struct.dynamically_allocated_data = type { ptr, ptr, ptr, ptr, ptr, ptr, ptr, ptr, ptr, ptr, ptr, ptr, ptr }
%struct.PureInfo = type { i32, i32, i32, i64, i64, i64, i64, i64, ptr, ptr, i64, i32, %struct.ip_quadruple, i32, ptr, i32, %struct.curl_certinfo, i32, i8 }
%struct.curl_certinfo = type { i32, ptr }
%struct.curl_tlssessioninfo = type { i32, ptr }

; Function Attrs: nounwind uwtable
define dso_local void @Curl_conn_close(ptr noundef %0, i32 noundef %1) #0 {
  %3 = alloca ptr, align 8
  %4 = alloca i32, align 4
  %5 = alloca ptr, align 8
  store ptr %0, ptr %3, align 8, !tbaa !9
  store i32 %1, ptr %4, align 4, !tbaa !53
  call void @llvm.lifetime.start.p0(i64 8, ptr %5) #5
  br label %6

6:                                                ; preds = %2
  br label %7

7:                                                ; preds = %6
  br label %8

8:                                                ; preds = %7
  %9 = load ptr, ptr %3, align 8, !tbaa !9
  %10 = getelementptr inbounds nuw %struct.Curl_easy, ptr %9, i32 0, i32 3
  %11 = load ptr, ptr %10, align 8, !tbaa !72
  %12 = getelementptr inbounds nuw %struct.connectdata, ptr %11, i32 0, i32 27
  %13 = load i32, ptr %4, align 4, !tbaa !53
  %14 = sext i32 %13 to i64
  %15 = getelementptr inbounds [2 x ptr], ptr %12, i64 0, i64 %14
  %16 = load ptr, ptr %15, align 8, !tbaa !4
  store ptr %16, ptr %5, align 8, !tbaa !4
  %17 = load ptr, ptr %5, align 8, !tbaa !4
  %18 = icmp ne ptr %17, null
  br i1 %18, label %19, label %27

19:                                               ; preds = %8
  %20 = load ptr, ptr %5, align 8, !tbaa !4
  %21 = getelementptr inbounds nuw %struct.Curl_cfilter, ptr %20, i32 0, i32 0
  %22 = load ptr, ptr %21, align 8, !tbaa !24
  %23 = getelementptr inbounds nuw %struct.Curl_cftype, ptr %22, i32 0, i32 5
  %24 = load ptr, ptr %23, align 8, !tbaa !126
  %25 = load ptr, ptr %5, align 8, !tbaa !4
  %26 = load ptr, ptr %3, align 8, !tbaa !9
  call void %24(ptr noundef %25, ptr noundef %26)
  br label %27

27:                                               ; preds = %19, %8
  %28 = load ptr, ptr %3, align 8, !tbaa !9
  %29 = load i32, ptr %4, align 4, !tbaa !53
  call void @Curl_shutdown_clear(ptr noundef %28, i32 noundef %29)
  call void @llvm.lifetime.end.p0(i64 8, ptr %5) #5
  ret void
}