; Function Attrs: nounwind uwtable
define dso_local void @Curl_conn_close(ptr noundef %0, i32 noundef %1) local_unnamed_addr #1 {
  %3 = getelementptr inbounds nuw i8, ptr %0, i64 24
  %4 = load ptr, ptr %3, align 8, !tbaa !56
  %5 = getelementptr inbounds nuw i8, ptr %4, i64 608
  %6 = sext i32 %1 to i64
  %7 = getelementptr inbounds [2 x ptr], ptr %5, i64 0, i64 %6
  %8 = load ptr, ptr %7, align 8, !tbaa !51
  %.not = icmp eq ptr %8, null
  br i1 %.not, label %13, label %9

9:                                                ; preds = %2
  %10 = load ptr, ptr %8, align 8, !tbaa !15
  %11 = getelementptr inbounds nuw i8, ptr %10, i64 32
  %12 = load ptr, ptr %11, align 8, !tbaa !111
  tail call void %12(ptr noundef nonnull %8, ptr noundef nonnull %0) #12
  br label %13

13:                                               ; preds = %9, %2
  tail call void @Curl_shutdown_clear(ptr noundef nonnull %0, i32 noundef %1) #12
  ret void
}